target datalayout = "e-m:e-p270:32:32-p271:32:32-p272:64:64-i64:64-i128:128-f80:128-n8:16:32:64-S128"
target triple = "x86_64-pc-linux-gnu"

%union.pthread_mutex_t = type { %struct.__pthread_mutex_s }
%struct.__pthread_mutex_s = type { i32, i32, i32, i32, i32, i16, i16, %struct.__pthread_internal_list }
%struct.__pthread_internal_list = type { ptr, ptr }
%struct.___itt_global = type { [8 x i8], i64, i64, i64, i64, i64, i64, %union.pthread_mutex_t, ptr, ptr, ptr, ptr, ptr, ptr, ptr, ptr, i32, ptr, i32, ptr, ptr }
%struct.___itt_id = type { i64, i64, i64 }

@__itt_task_begin_overlapped_ex_ptr__3_0 = hidden global ptr @__itt_task_begin_overlapped_ex_init_3_0, align 8
@__itt_init_ittlib_ptr = internal global ptr @__itt_init_ittlib, align 8

; Function Attrs: nounwind uwtable
define internal void @__itt_task_begin_overlapped_ex_init_3_0(ptr noundef %0, ptr noundef %1, i64 noundef %2, ptr noundef byval(%struct.___itt_id) align 8 %3, ptr noundef byval(%struct.___itt_id) align 8 %4, ptr noundef %5) #0 {
  %7 = alloca ptr, align 8
  %8 = alloca ptr, align 8
  %9 = alloca i64, align 8
  %10 = alloca ptr, align 8
  store ptr %0, ptr %7, align 8, !tbaa !27
  store ptr %1, ptr %8, align 8, !tbaa !37
  store i64 %2, ptr %9, align 8, !tbaa !31
  store ptr %5, ptr %10, align 8, !tbaa !28
  %11 = load volatile i64, ptr getelementptr inbounds nuw (%struct.___itt_global, ptr @__itt__ittapi_global, i32 0, i32 4), align 8, !tbaa !3
  %12 = icmp ne i64 %11, 0
  br i1 %12, label %19, label %13

13:                                               ; preds = %6
  %14 = load ptr, ptr getelementptr inbounds nuw (%struct.___itt_global, ptr @__itt__ittapi_global, i32 0, i32 13), align 8, !tbaa !20
  %15 = icmp eq ptr %14, null
  br i1 %15, label %16, label %19

16:                                               ; preds = %13
  %17 = load ptr, ptr @__itt_init_ittlib_ptr, align 8, !tbaa !21
  %18 = call i32 %17(ptr noundef null, i32 noundef -1)
  br label %19

19:                                               ; preds = %16, %13, %6
  %20 = load ptr, ptr @__itt_task_begin_overlapped_ex_ptr__3_0, align 8, !tbaa !21
  %21 = icmp ne ptr %20, null
  br i1 %21, label %22, label %31

22:                                               ; preds = %19
  %23 = load ptr, ptr @__itt_task_begin_overlapped_ex_ptr__3_0, align 8, !tbaa !21
  %24 = icmp ne ptr %23, @__itt_task_begin_overlapped_ex_init_3_0
  br i1 %24, label %25, label %31

25:                                               ; preds = %22
  %26 = load ptr, ptr @__itt_task_begin_overlapped_ex_ptr__3_0, align 8, !tbaa !21
  %27 = load ptr, ptr %7, align 8, !tbaa !27
  %28 = load ptr, ptr %8, align 8, !tbaa !37
  %29 = load i64, ptr %9, align 8, !tbaa !31
  %30 = load ptr, ptr %10, align 8, !tbaa !28
  call void %26(ptr noundef %27, ptr noundef %28, i64 noundef %29, ptr noundef byval(%struct.___itt_id) align 8 %3, ptr noundef byval(%struct.___itt_id) align 8 %4, ptr noundef %30)
  br label %32

31:                                               ; preds = %22, %19
  br label %32

32:                                               ; preds = %31, %25
  ret void
}